ASxxxx Linker V03.00 + NoICE + sdld,  page 1.
Hexadecimal  [32-Bits]

Area                                    Addr        Size        Decimal Bytes (Attributes)
--------------------------------        ----        ----        ------- ----- ------------
.  .ABS.                            00000000    00000000 =           0. bytes (ABS,CON)

      Value  Global                              Global Defined In Module
      -----  --------------------------------   ------------------------
     00000000  .__.ABS.                           args
     00000000  l__BSS                          
     00000000  l__CABS                         
     00000000  l__DABS                         
     00000000  l__HEAP                         
     00000000  l__HOME                         
     00000000  l__INITFINAL                    
     00000000  l__INITIALIZED                  
     00000000  l__INITIALIZER                  
     00000000  s__CABS                         
     00000000  s__DABS                         
     00000001  l__GSFINAL                      
     0000000F  l__GSINIT                       
     00000012  l__DATA                         
     00000100  s__CODE                         
     00000400  l__STACK                        
     00000736  l__CODE                         
     00000836  s__GSINIT                       
     00000845  s__GSFINAL                      
     00000846  s__DATA                         
     00000846  s__HOME                         
     00000846  s__INITFINAL                    
     00000846  s__INITIALIZED                  
     00000846  s__INITIALIZER                  
     00000858  s__BSS                          
     00000858  s__STACK                        
     00000C58  s__HEAP                         
ASxxxx Linker V03.00 + NoICE + sdld,  page 2.
Hexadecimal  [32-Bits]

Area                                    Addr        Size        Decimal Bytes (Attributes)
--------------------------------        ----        ----        ------- ----- ------------
_CODE                               00000100    00000736 =        1846. bytes (REL,CON)

      Value  Global                              Global Defined In Module
      -----  --------------------------------   ------------------------
     00000119  A$main$53                          main
     00000119  C$main.c$14$0_0$5                  main
     00000119  G$main$0$0                         main
     00000119  _main                              main
     0000011B  A$main$54                          main
     0000011F  A$main$55                          main
     00000121  A$main$59                          main
     00000121  C$main.c$16$1_0$5                  main
     00000124  A$main$62                          main
     00000127  A$main$65                          main
     00000128  A$main$66                          main
     0000012B  A$main$67                          main
     0000012C  A$main$68                          main
     0000012F  A$main$69                          main
     00000130  A$main$70                          main
     00000131  A$main$74                          main
     00000134  A$main$76                          main
     00000135  A$main$77                          main
     00000138  A$main$78                          main
     00000139  A$main$79                          main
     0000013C  A$main$80                          main
     0000013F  A$main$81                          main
     00000141  A$main$83                          main
     00000144  A$main$87                          main
     00000144  C$main.c$18$2_0$6                  main
     00000145  A$main$90                          main
     00000146  A$main$93                          main
     00000147  A$main$94                          main
     00000148  A$main$95                          main
     0000014B  A$main$96                          main
     0000014E  A$main$97                          main
     0000014F  A$main$98                          main
     00000150  A$main$99                          main
     00000151  A$main$100                         main
     00000152  A$main$101                         main
     00000153  A$main$102                         main
     00000154  A$main$103                         main
     00000157  A$main$104                         main
     00000158  A$main$105                         main
     0000015B  A$main$106                         main
     0000015C  A$main$107                         main
     0000015D  A$main$108                         main
     0000015E  A$main$112                         main
     0000015E  C$main.c$17$2_0$6                  main
     0000015F  A$main$113                         main
     00000161  A$main$118                         main
     00000161  C$main.c$20$1_0$5                  main
     00000164  A$main$122                         main
     00000166  A$main$127                         main
     00000166  C$main.c$21$1_0$5                  main
ASxxxx Linker V03.00 + NoICE + sdld,  page 3.
Hexadecimal  [32-Bits]

Area                                    Addr        Size        Decimal Bytes (Attributes)
--------------------------------        ----        ----        ------- ----- ------------
_CODE                               00000100    00000736 =        1846. bytes (REL,CON)

      Value  Global                              Global Defined In Module
      -----  --------------------------------   ------------------------
     00000166  XG$main$0$0                        main
     00000167  Fmain$__str_0$0_0$0                main
     00000176  Fmain$__str_1$0_0$0                main
     0000017A  A$cpm$58                           cpm
     0000017A  C$cpm.c$14$0_0$4                   cpm
     0000017A  C$cpm.c$16$1_0$4                   cpm
     0000017A  G$putchar$0$0                      cpm
     0000017A  _putchar                           cpm
     0000017D  A$cpm$59                           cpm
     0000017E  A$cpm$60                           cpm
     0000017F  A$cpm$61                           cpm
     00000181  A$cpm$62                           cpm
     00000183  A$cpm$66                           cpm
     00000183  C$cpm.c$17$2_0$5                   cpm
     00000186  A$cpm$67                           cpm
     00000187  A$cpm$68                           cpm
     00000189  A$cpm$69                           cpm
     0000018A  A$cpm$70                           cpm
     0000018B  A$cpm$71                           cpm
     0000018E  A$cpm$75                           cpm
     0000018E  C$cpm.c$18$2_0$5                   cpm
     0000018F  A$cpm$76                           cpm
     00000192  A$cpm$77                           cpm
     00000193  A$cpm$78                           cpm
     00000195  A$cpm$79                           cpm
     00000196  A$cpm$80                           cpm
     00000197  A$cpm$81                           cpm
     0000019A  A$cpm$82                           cpm
     0000019B  A$cpm$83                           cpm
     0000019C  A$cpm$84                           cpm
     0000019E  A$cpm$89                           cpm
     0000019E  C$cpm.c$19$1_0$4                   cpm
     0000019F  A$cpm$90                           cpm
     000001A0  A$cpm$91                           cpm
     000001A1  A$cpm$92                           cpm
     000001A2  A$cpm$93                           cpm
     000001A3  A$cpm$94                           cpm
     000001A5  A$cpm$95                           cpm
     000001A6  A$cpm$96                           cpm
     000001A7  A$cpm$97                           cpm
     000001AA  A$cpm$98                           cpm
     000001AB  A$cpm$99                           cpm
     000001AC  A$cpm$104                          cpm
     000001AC  C$cpm.c$20$1_0$4                   cpm
     000001AD  A$cpm$105                          cpm
     000001AE  A$cpm$106                          cpm
     000001AF  A$cpm$107                          cpm
     000001B0  A$cpm$115                          cpm
     000001B0  C$cpm.c$21$1_0$4                   cpm
     000001B0  XG$putchar$0$0                     cpm
     000001B1  A$cpm$125                          cpm
ASxxxx Linker V03.00 + NoICE + sdld,  page 4.
Hexadecimal  [32-Bits]

Area                                    Addr        Size        Decimal Bytes (Attributes)
--------------------------------        ----        ----        ------- ----- ------------
_CODE                               00000100    00000736 =        1846. bytes (REL,CON)

      Value  Global                              Global Defined In Module
      -----  --------------------------------   ------------------------
     000001B1  C$cpm.c$27$1_0$7                   cpm
     000001B1  G$puts$0$0                         cpm
     000001B1  _puts                              cpm
     000001B3  A$cpm$126                          cpm
     000001B7  A$cpm$127                          cpm
     000001B9  A$cpm$131                          cpm
     000001B9  C$cpm.c$30$1_0$7                   cpm
     000001BC  A$cpm$132                          cpm
     000001BF  A$cpm$133                          cpm
     000001C1  A$cpm$134                          cpm
     000001C4  A$cpm$135                          cpm
     000001C7  A$cpm$136                          cpm
     000001C8  A$cpm$137                          cpm
     000001C9  A$cpm$138                          cpm
     000001CB  A$cpm$140                          cpm
     000001CE  A$cpm$141                          cpm
     000001D0  A$cpm$146                          cpm
     000001D0  C$cpm.c$32$1_1$7                   cpm
     000001D3  A$cpm$148                          cpm
     000001D4  A$cpm$149                          cpm
     000001D5  A$cpm$150                          cpm
     000001D6  A$cpm$151                          cpm
     000001D7  A$cpm$152                          cpm
     000001D8  A$cpm$153                          cpm
     000001DA  A$cpm$154                          cpm
     000001DC  A$cpm$157                          cpm
     000001DD  A$cpm$158                          cpm
     000001DE  A$cpm$159                          cpm
     000001DF  A$cpm$162                          cpm
     000001E0  A$cpm$163                          cpm
     000001E3  A$cpm$164                          cpm
     000001E4  A$cpm$165                          cpm
     000001E5  A$cpm$166                          cpm
     000001E6  A$cpm$167                          cpm
     000001E7  A$cpm$168                          cpm
     000001E9  A$cpm$173                          cpm
     000001E9  C$cpm.c$33$1_1$8                   cpm
     000001EC  A$cpm$178                          cpm
     000001EE  A$cpm$183                          cpm
     000001EE  C$cpm.c$34$1_1$7                   cpm
     000001EE  XG$puts$0$0                        cpm
     000001EF  A$cpm$193                          cpm
     000001EF  C$cpm.c$44$1_1$11                  cpm
     000001EF  Fcpm$_prints$0$0                   cpm
     000001F1  A$cpm$194                          cpm
     000001F5  A$cpm$195                          cpm
     000001F7  A$cpm$196                          cpm
     000001F8  A$cpm$200                          cpm
     000001F8  C$cpm.c$46$2_0$11                  cpm
     000001FB  A$cpm$204                          cpm
     000001FE  A$cpm$205                          cpm
ASxxxx Linker V03.00 + NoICE + sdld,  page 5.
Hexadecimal  [32-Bits]

Area                                    Addr        Size        Decimal Bytes (Attributes)
--------------------------------        ----        ----        ------- ----- ------------
_CODE                               00000100    00000736 =        1846. bytes (REL,CON)

      Value  Global                              Global Defined In Module
      -----  --------------------------------   ------------------------
     00000201  A$cpm$206                          cpm
     00000204  A$cpm$207                          cpm
     00000207  A$cpm$211                          cpm
     00000207  C$cpm.c$48$1_0$11                  cpm
     00000208  A$cpm$212                          cpm
     0000020B  A$cpm$213                          cpm
     0000020E  A$cpm$214                          cpm
     00000211  A$cpm$215                          cpm
     00000213  A$cpm$217                          cpm
     00000216  A$cpm$221                          cpm
     00000216  C$cpm.c$51$2_0$11                  cpm
     00000219  A$cpm$222                          cpm
     0000021A  A$cpm$223                          cpm
     0000021B  A$cpm$225                          cpm
     0000021C  A$cpm$226                          cpm
     0000021D  A$cpm$227                          cpm
     0000021F  A$cpm$228                          cpm
     00000220  A$cpm$229                          cpm
     00000221  A$cpm$230                          cpm
     00000223  A$cpm$235                          cpm
     00000223  C$cpm.c$52$2_0$12                  cpm
     00000224  A$cpm$236                          cpm
     00000227  A$cpm$237                          cpm
     00000228  A$cpm$238                          cpm
     0000022B  A$cpm$239                          cpm
     0000022E  A$cpm$240                          cpm
     00000230  A$cpm$242                          cpm
     00000233  A$cpm$243                          cpm
     00000234  A$cpm$244                          cpm
     00000237  A$cpm$245                          cpm
     0000023A  A$cpm$246                          cpm
     0000023C  A$cpm$251                          cpm
     0000023C  C$cpm.c$53$2_0$12                  cpm
     0000023F  A$cpm$252                          cpm
     00000240  A$cpm$253                          cpm
     00000243  A$cpm$254                          cpm
     00000246  A$cpm$255                          cpm
     00000247  A$cpm$256                          cpm
     0000024A  A$cpm$261                          cpm
     0000024A  C$cpm.c$54$2_0$12                  cpm
     0000024E  A$cpm$262                          cpm
     00000250  A$cpm$266                          cpm
     00000250  C$cpm.c$55$2_0$12                  cpm
     00000253  A$cpm$271                          cpm
     00000253  C$cpm.c$57$1_0$11                  cpm
     00000257  A$cpm$272                          cpm
     00000259  A$cpm$273                          cpm
     0000025C  A$cpm$274                          cpm
     0000025F  A$cpm$279                          cpm
     00000260  A$cpm$280                          cpm
     00000261  A$cpm$281                          cpm
ASxxxx Linker V03.00 + NoICE + sdld,  page 6.
Hexadecimal  [32-Bits]

Area                                    Addr        Size        Decimal Bytes (Attributes)
--------------------------------        ----        ----        ------- ----- ------------
_CODE                               00000100    00000736 =        1846. bytes (REL,CON)

      Value  Global                              Global Defined In Module
      -----  --------------------------------   ------------------------
     00000262  A$cpm$282                          cpm
     00000265  A$cpm$283                          cpm
     00000267  A$cpm$285                          cpm
     0000026A  A$cpm$289                          cpm
     0000026A  C$cpm.c$59$4_0$16                  cpm
     0000026B  A$cpm$290                          cpm
     0000026C  A$cpm$291                          cpm
     0000026D  A$cpm$292                          cpm
     00000270  A$cpm$293                          cpm
     00000271  A$cpm$294                          cpm
     00000272  A$cpm$295                          cpm
     00000273  A$cpm$299                          cpm
     00000273  C$cpm.c$58$3_0$15                  cpm
     00000274  A$cpm$300                          cpm
     00000276  A$cpm$302                          cpm
     00000279  A$cpm$303                          cpm
     0000027C  A$cpm$309                          cpm
     0000027D  A$cpm$310                          cpm
     0000027E  A$cpm$311                          cpm
     0000027F  A$cpm$312                          cpm
     00000280  A$cpm$313                          cpm
     00000282  A$cpm$317                          cpm
     00000282  C$cpm.c$63$3_0$18                  cpm
     00000284  A$cpm$318                          cpm
     00000285  A$cpm$319                          cpm
     00000286  A$cpm$320                          cpm
     00000287  A$cpm$321                          cpm
     0000028A  A$cpm$322                          cpm
     0000028B  A$cpm$323                          cpm
     0000028C  A$cpm$327                          cpm
     0000028C  C$cpm.c$62$2_0$17                  cpm
     0000028F  A$cpm$328                          cpm
     00000291  A$cpm$329                          cpm
     00000294  A$cpm$330                          cpm
     00000296  A$cpm$332                          cpm
     00000299  A$cpm$333                          cpm
     0000029C  A$cpm$338                          cpm
     0000029D  A$cpm$339                          cpm
     0000029E  A$cpm$340                          cpm
     0000029F  A$cpm$341                          cpm
     000002A2  A$cpm$342                          cpm
     000002A4  A$cpm$344                          cpm
     000002A7  A$cpm$348                          cpm
     000002A7  C$cpm.c$66$3_0$20                  cpm
     000002A8  A$cpm$349                          cpm
     000002A9  A$cpm$350                          cpm
     000002AA  A$cpm$351                          cpm
     000002AD  A$cpm$352                          cpm
     000002AE  A$cpm$353                          cpm
     000002AF  A$cpm$354                          cpm
     000002B0  A$cpm$358                          cpm
ASxxxx Linker V03.00 + NoICE + sdld,  page 7.
Hexadecimal  [32-Bits]

Area                                    Addr        Size        Decimal Bytes (Attributes)
--------------------------------        ----        ----        ------- ----- ------------
_CODE                               00000100    00000736 =        1846. bytes (REL,CON)

      Value  Global                              Global Defined In Module
      -----  --------------------------------   ------------------------
     000002B0  C$cpm.c$65$2_0$19                  cpm
     000002B1  A$cpm$359                          cpm
     000002B3  A$cpm$364                          cpm
     000002B5  A$cpm$365                          cpm
     000002B7  A$cpm$370                          cpm
     000002B7  C$cpm.c$68$2_0$11                  cpm
     000002B7  XFcpm$_prints$0$0                  cpm
     000002B8  A$cpm$380                          cpm
     000002B8  C$cpm.c$71$2_0$22                  cpm
     000002B8  Fcpm$_printi$0$0                   cpm
     000002BA  A$cpm$381                          cpm
     000002BE  A$cpm$382                          cpm
     000002C0  A$cpm$383                          cpm
     000002C3  A$cpm$384                          cpm
     000002C4  A$cpm$385                          cpm
     000002C5  A$cpm$389                          cpm
     000002C5  C$cpm.c$75$2_0$22                  cpm
     000002C6  A$cpm$390                          cpm
     000002C9  A$cpm$391                          cpm
     000002CC  A$cpm$395                          cpm
     000002CC  C$cpm.c$76$2_0$22                  cpm
     000002CF  A$cpm$396                          cpm
     000002D2  A$cpm$400                          cpm
     000002D2  C$cpm.c$77$1_0$22                  cpm
     000002D3  A$cpm$401                          cpm
     000002D4  A$cpm$402                          cpm
     000002D6  A$cpm$406                          cpm
     000002D6  C$cpm.c$78$2_0$23                  cpm
     000002D9  A$cpm$407                          cpm
     000002DA  A$cpm$408                          cpm
     000002DB  A$cpm$409                          cpm
     000002DD  A$cpm$410                          cpm
     000002DE  A$cpm$414                          cpm
     000002DE  C$cpm.c$79$2_0$23                  cpm
     000002DF  A$cpm$415                          cpm
     000002E0  A$cpm$416                          cpm
     000002E1  A$cpm$417                          cpm
     000002E2  A$cpm$418                          cpm
     000002E3  A$cpm$422                          cpm
     000002E3  C$cpm.c$80$2_0$23                  cpm
     000002E6  A$cpm$425                          cpm
     000002E9  A$cpm$428                          cpm
     000002EA  A$cpm$429                          cpm
     000002ED  A$cpm$432                          cpm
     000002F0  A$cpm$435                          cpm
     000002F1  A$cpm$436                          cpm
     000002F2  A$cpm$437                          cpm
     000002F5  A$cpm$438                          cpm
     000002F6  A$cpm$439                          cpm
     000002F7  A$cpm$440                          cpm
     000002F8  A$cpm$444                          cpm
ASxxxx Linker V03.00 + NoICE + sdld,  page 8.
Hexadecimal  [32-Bits]

Area                                    Addr        Size        Decimal Bytes (Attributes)
--------------------------------        ----        ----        ------- ----- ------------
_CODE                               00000100    00000736 =        1846. bytes (REL,CON)

      Value  Global                              Global Defined In Module
      -----  --------------------------------   ------------------------
     000002F8  C$cpm.c$81$2_0$23                  cpm
     000002FB  A$cpm$449                          cpm
     000002FB  C$cpm.c$83$1_0$22                  cpm
     000002FE  A$cpm$450                          cpm
     00000301  A$cpm$451                          cpm
     00000303  A$cpm$452                          cpm
     00000306  A$cpm$453                          cpm
     00000308  A$cpm$454                          cpm
     0000030B  A$cpm$455                          cpm
     0000030D  A$cpm$456                          cpm
     00000311  A$cpm$457                          cpm
     00000313  A$cpm$461                          cpm
     00000313  C$cpm.c$84$2_0$24                  cpm
     00000317  A$cpm$462                          cpm
     0000031B  A$cpm$466                          cpm
     0000031B  C$cpm.c$85$2_0$24                  cpm
     0000031C  A$cpm$467                          cpm
     0000031D  A$cpm$468                          cpm
     0000031E  A$cpm$469                          cpm
     0000031F  A$cpm$470                          cpm
     00000320  A$cpm$471                          cpm
     00000321  A$cpm$476                          cpm
     00000321  C$cpm.c$87$1_0$22                  cpm
     00000324  A$cpm$477                          cpm
     00000325  A$cpm$478                          cpm
     00000326  A$cpm$482                          cpm
     00000326  C$cpm.c$88$1_0$22                  cpm
     00000327  A$cpm$483                          cpm
     00000328  A$cpm$487                          cpm
     00000328  C$cpm.c$89$2_0$25                  cpm
     0000032B  A$cpm$488                          cpm
     0000032D  A$cpm$489                          cpm
     00000330  A$cpm$490                          cpm
     00000333  A$cpm$491                          cpm
     00000335  A$cpm$492                          cpm
     00000338  A$cpm$494                          cpm
     00000339  A$cpm$495                          cpm
     0000033A  A$cpm$496                          cpm
     0000033C  A$cpm$500                          cpm
     0000033C  C$cpm.c$90$2_0$25                  cpm
     0000033F  A$cpm$501                          cpm
     00000342  A$cpm$502                          cpm
     00000345  A$cpm$503                          cpm
     00000348  A$cpm$504                          cpm
     00000349  A$cpm$505                          cpm
     0000034A  A$cpm$506                          cpm
     0000034D  A$cpm$509                          cpm
     00000350  A$cpm$512                          cpm
     00000351  A$cpm$513                          cpm
     00000352  A$cpm$514                          cpm
     00000355  A$cpm$515                          cpm
ASxxxx Linker V03.00 + NoICE + sdld,  page 9.
Hexadecimal  [32-Bits]

Area                                    Addr        Size        Decimal Bytes (Attributes)
--------------------------------        ----        ----        ------- ----- ------------
_CODE                               00000100    00000736 =        1846. bytes (REL,CON)

      Value  Global                              Global Defined In Module
      -----  --------------------------------   ------------------------
     00000356  A$cpm$516                          cpm
     00000357  A$cpm$517                          cpm
     00000358  A$cpm$518                          cpm
     00000359  A$cpm$519                          cpm
     0000035C  A$cpm$520                          cpm
     0000035F  A$cpm$524                          cpm
     0000035F  C$cpm.c$91$2_0$25                  cpm
     00000362  A$cpm$525                          cpm
     00000364  A$cpm$526                          cpm
     00000367  A$cpm$527                          cpm
     00000368  A$cpm$528                          cpm
     00000369  A$cpm$529                          cpm
     0000036A  A$cpm$530                          cpm
     0000036C  A$cpm$531                          cpm
     0000036E  A$cpm$535                          cpm
     0000036E  C$cpm.c$92$2_0$25                  cpm
     00000371  A$cpm$536                          cpm
     00000374  A$cpm$537                          cpm
     00000377  A$cpm$538                          cpm
     0000037A  A$cpm$539                          cpm
     0000037D  A$cpm$540                          cpm
     00000380  A$cpm$545                          cpm
     00000380  C$cpm.c$93$2_0$25                  cpm
     00000381  A$cpm$546                          cpm
     00000384  A$cpm$547                          cpm
     00000386  A$cpm$548                          cpm
     00000387  A$cpm$552                          cpm
     00000387  C$cpm.c$94$1_0$22                  cpm
     00000388  A$cpm$553                          cpm
     0000038B  A$cpm$556                          cpm
     0000038E  A$cpm$559                          cpm
     0000038F  A$cpm$560                          cpm
     00000390  A$cpm$561                          cpm
     00000393  A$cpm$562                          cpm
     00000394  A$cpm$563                          cpm
     00000395  A$cpm$564                          cpm
     00000396  A$cpm$565                          cpm
     00000397  A$cpm$566                          cpm
     00000398  A$cpm$567                          cpm
     0000039A  A$cpm$572                          cpm
     0000039A  C$cpm.c$96$1_0$22                  cpm
     0000039D  A$cpm$573                          cpm
     000003A0  A$cpm$574                          cpm
     000003A2  A$cpm$578                          cpm
     000003A2  C$cpm.c$97$2_0$26                  cpm
     000003A5  A$cpm$579                          cpm
     000003A8  A$cpm$580                          cpm
     000003AA  A$cpm$581                          cpm
     000003AE  A$cpm$582                          cpm
     000003B0  A$cpm$586                          cpm
     000003B0  C$cpm.c$98$3_0$27                  cpm
ASxxxx Linker V03.00 + NoICE + sdld,  page 10.
Hexadecimal  [32-Bits]

Area                                    Addr        Size        Decimal Bytes (Attributes)
--------------------------------        ----        ----        ------- ----- ------------
_CODE                               00000100    00000736 =        1846. bytes (REL,CON)

      Value  Global                              Global Defined In Module
      -----  --------------------------------   ------------------------
     000003B1  A$cpm$587                          cpm
     000003B4  A$cpm$588                          cpm
     000003B5  A$cpm$589                          cpm
     000003B8  A$cpm$590                          cpm
     000003B9  A$cpm$591                          cpm
     000003BA  A$cpm$595                          cpm
     000003BA  C$cpm.c$100$3_0$27                 cpm
     000003BD  A$cpm$596                          cpm
     000003C0  A$cpm$597                          cpm
     000003C1  A$cpm$598                          cpm
     000003C4  A$cpm$599                          cpm
     000003C7  A$cpm$600                          cpm
     000003C9  A$cpm$605                          cpm
     000003C9  C$cpm.c$103$3_0$28                 cpm
     000003CA  A$cpm$606                          cpm
     000003CC  A$cpm$607                          cpm
     000003CD  A$cpm$612                          cpm
     000003CD  C$cpm.c$106$1_0$22                 cpm
     000003D0  A$cpm$615                          cpm
     000003D3  A$cpm$618                          cpm
     000003D4  A$cpm$619                          cpm
     000003D7  A$cpm$622                          cpm
     000003DA  A$cpm$625                          cpm
     000003DB  A$cpm$626                          cpm
     000003DC  A$cpm$627                          cpm
     000003DF  A$cpm$628                          cpm
     000003E0  A$cpm$629                          cpm
     000003E1  A$cpm$630                          cpm
     000003E2  A$cpm$635                          cpm
     000003E4  A$cpm$636                          cpm
     000003E6  A$cpm$641                          cpm
     000003E6  C$cpm.c$107$1_0$22                 cpm
     000003E6  XFcpm$_printi$0$0                  cpm
     000003E7  A$cpm$651                          cpm
     000003E7  C$cpm.c$116$1_0$30                 cpm
     000003E7  G$printf$0$0                       cpm
     000003E7  _printf                            cpm
     000003E9  A$cpm$652                          cpm
     000003ED  A$cpm$653                          cpm
     000003EF  A$cpm$654                          cpm
     000003F2  A$cpm$655                          cpm
     000003F3  A$cpm$656                          cpm
     000003F4  A$cpm$660                          cpm
     000003F4  C$cpm.c$120$2_0$31                 cpm
     000003F7  A$cpm$661                          cpm
     000003F8  A$cpm$662                          cpm
     000003FB  A$cpm$663                          cpm
     000003FE  A$cpm$668                          cpm
     00000401  A$cpm$669                          cpm
     00000404  A$cpm$670                          cpm
     00000405  A$cpm$671                          cpm
ASxxxx Linker V03.00 + NoICE + sdld,  page 11.
Hexadecimal  [32-Bits]

Area                                    Addr        Size        Decimal Bytes (Attributes)
--------------------------------        ----        ----        ------- ----- ------------
_CODE                               00000100    00000736 =        1846. bytes (REL,CON)

      Value  Global                              Global Defined In Module
      -----  --------------------------------   ------------------------
     00000406  A$cpm$672                          cpm
     00000409  A$cpm$676                          cpm
     00000409  C$cpm.c$135$3_1$34                 cpm
     0000040B  A$cpm$677                          cpm
     0000040E  A$cpm$681                          cpm
     0000040E  C$cpm.c$136$4_1$35                 cpm
     0000040F  A$cpm$682                          cpm
     00000412  A$cpm$683                          cpm
     00000415  A$cpm$687                          cpm
     00000415  C$cpm.c$137$4_1$35                 cpm
     00000416  A$cpm$688                          cpm
     00000419  A$cpm$689                          cpm
     0000041C  A$cpm$690                          cpm
     0000041D  A$cpm$691                          cpm
     00000420  A$cpm$692                          cpm
     00000423  A$cpm$696                          cpm
     00000423  C$cpm.c$133$2_1$30                 cpm
     00000426  A$cpm$697                          cpm
     00000429  A$cpm$698                          cpm
     0000042C  A$cpm$699                          cpm
     0000042F  A$cpm$700                          cpm
     00000432  A$cpm$701                          cpm
     00000435  A$cpm$702                          cpm
     00000436  A$cpm$706                          cpm
     00000436  C$cpm.c$138$4_1$35                 cpm
     00000437  A$cpm$707                          cpm
     0000043A  A$cpm$711                          cpm
     0000043A  C$cpm.c$140$4_1$35                 cpm
     0000043C  A$cpm$712                          cpm
     0000043F  A$cpm$716                          cpm
     0000043F  C$cpm.c$142$4_1$35                 cpm
     00000441  A$cpm$717                          cpm
     00000443  A$cpm$721                          cpm
     00000443  C$cpm.c$143$5_1$36                 cpm
     00000446  A$cpm$722                          cpm
     00000448  A$cpm$723                          cpm
     0000044B  A$cpm$724                          cpm
     0000044E  A$cpm$725                          cpm
     00000450  A$cpm$726                          cpm
     00000453  A$cpm$730                          cpm
     00000453  C$cpm.c$144$5_1$36                 cpm
     00000457  A$cpm$731                          cpm
     0000045B  A$cpm$736                          cpm
     0000045B  C$cpm.c$146$2_1$30                 cpm
     0000045E  A$cpm$737                          cpm
     00000461  A$cpm$739                          cpm
     00000462  A$cpm$740                          cpm
     00000463  A$cpm$744                          cpm
     00000463  C$cpm.c$147$2_1$30                 cpm
     00000464  A$cpm$745                          cpm
     00000465  A$cpm$746                          cpm
ASxxxx Linker V03.00 + NoICE + sdld,  page 12.
Hexadecimal  [32-Bits]

Area                                    Addr        Size        Decimal Bytes (Attributes)
--------------------------------        ----        ----        ------- ----- ------------
_CODE                               00000100    00000736 =        1846. bytes (REL,CON)

      Value  Global                              Global Defined In Module
      -----  --------------------------------   ------------------------
     00000466  A$cpm$747                          cpm
     00000469  A$cpm$748                          cpm
     0000046C  A$cpm$752                          cpm
     0000046C  C$cpm.c$146$4_1$35                 cpm
     0000046D  A$cpm$753                          cpm
     0000046F  A$cpm$754                          cpm
     00000471  A$cpm$758                          cpm
     00000471  C$cpm.c$147$5_1$37                 cpm
     00000474  A$cpm$759                          cpm
     00000477  A$cpm$760                          cpm
     0000047A  A$cpm$761                          cpm
     0000047D  A$cpm$762                          cpm
     00000480  A$cpm$763                          cpm
     00000483  A$cpm$767                          cpm
     00000483  C$cpm.c$148$5_1$37                 cpm
     00000486  A$cpm$768                          cpm
     00000488  A$cpm$769                          cpm
     0000048B  A$cpm$770                          cpm
     0000048D  A$cpm$772                          cpm
     00000490  A$cpm$773                          cpm
     00000493  A$cpm$777                          cpm
     00000493  C$cpm.c$150$4_1$35                 cpm
     00000494  A$cpm$778                          cpm
     00000496  A$cpm$779                          cpm
     00000498  A$cpm$783                          cpm
     00000498  C$cpm.c$151$5_1$38                 cpm
     0000049B  A$cpm$784                          cpm
     0000049E  A$cpm$785                          cpm
     0000049F  A$cpm$786                          cpm
     000004A0  A$cpm$787                          cpm
     000004A3  A$cpm$788                          cpm
     000004A6  A$cpm$789                          cpm
     000004A7  A$cpm$790                          cpm
     000004A8  A$cpm$791                          cpm
     000004A9  A$cpm$792                          cpm
     000004AC  A$cpm$793                          cpm
     000004AD  A$cpm$794                          cpm
     000004AE  A$cpm$795                          cpm
     000004B1  A$cpm$799                          cpm
     000004B1  C$cpm.c$152$5_1$38                 cpm
     000004B4  A$cpm$800                          cpm
     000004B7  A$cpm$801                          cpm
     000004BA  A$cpm$802                          cpm
     000004BD  A$cpm$803                          cpm
     000004BF  A$cpm$809                          cpm
     000004C0  A$cpm$810                          cpm
     000004C1  A$cpm$811                          cpm
     000004C3  A$cpm$812                          cpm
     000004C5  A$cpm$813                          cpm
     000004C7  A$cpm$814                          cpm
     000004C8  A$cpm$815                          cpm
ASxxxx Linker V03.00 + NoICE + sdld,  page 13.
Hexadecimal  [32-Bits]

Area                                    Addr        Size        Decimal Bytes (Attributes)
--------------------------------        ----        ----        ------- ----- ------------
_CODE                               00000100    00000736 =        1846. bytes (REL,CON)

      Value  Global                              Global Defined In Module
      -----  --------------------------------   ------------------------
     000004CA  A$cpm$819                          cpm
     000004CA  C$cpm.c$155$7_1$41                 cpm
     000004CB  A$cpm$820                          cpm
     000004CE  A$cpm$821                          cpm
     000004D1  A$cpm$822                          cpm
     000004D2  A$cpm$823                          cpm
     000004D3  A$cpm$824                          cpm
     000004D4  A$cpm$825                          cpm
     000004D5  A$cpm$826                          cpm
     000004D6  A$cpm$827                          cpm
     000004D7  A$cpm$828                          cpm
     000004D8  A$cpm$832                          cpm
     000004D8  C$cpm.c$156$7_1$41                 cpm
     000004DA  A$cpm$833                          cpm
     000004DB  A$cpm$834                          cpm
     000004DD  A$cpm$835                          cpm
     000004DE  A$cpm$836                          cpm
     000004DF  A$cpm$837                          cpm
     000004E1  A$cpm$838                          cpm
     000004E2  A$cpm$839                          cpm
     000004E3  A$cpm$840                          cpm
     000004E6  A$cpm$841                          cpm
     000004E9  A$cpm$845                          cpm
     000004E9  C$cpm.c$154$6_1$40                 cpm
     000004EA  A$cpm$846                          cpm
     000004ED  A$cpm$847                          cpm
     000004F0  A$cpm$848                          cpm
     000004F2  A$cpm$850                          cpm
     000004F5  A$cpm$851                          cpm
     000004F8  A$cpm$856                          cpm
     000004FB  A$cpm$859                          cpm
     000004FE  A$cpm$862                          cpm
     000004FF  A$cpm$866                          cpm
     000004FF  C$cpm.c$151$2_1$30                 cpm
     00000502  A$cpm$867                          cpm
     00000505  A$cpm$868                          cpm
     00000506  A$cpm$869                          cpm
     00000507  A$cpm$873                          cpm
     00000508  A$cpm$874                          cpm
     0000050A  A$cpm$875                          cpm
     0000050D  A$cpm$876                          cpm
     0000050E  A$cpm$877                          cpm
     00000510  A$cpm$878                          cpm
     00000513  A$cpm$882                          cpm
     00000513  C$cpm.c$167$2_1$30                 cpm
     00000516  A$cpm$883                          cpm
     00000519  A$cpm$884                          cpm
     0000051C  A$cpm$885                          cpm
     0000051F  A$cpm$889                          cpm
     00000520  A$cpm$890                          cpm
     00000522  A$cpm$891                          cpm
ASxxxx Linker V03.00 + NoICE + sdld,  page 14.
Hexadecimal  [32-Bits]

Area                                    Addr        Size        Decimal Bytes (Attributes)
--------------------------------        ----        ----        ------- ----- ------------
_CODE                               00000100    00000736 =        1846. bytes (REL,CON)

      Value  Global                              Global Defined In Module
      -----  --------------------------------   ------------------------
     00000525  A$cpm$895                          cpm
     00000525  C$cpm.c$162$2_1$30                 cpm
     00000528  A$cpm$896                          cpm
     0000052B  A$cpm$897                          cpm
     0000052E  A$cpm$898                          cpm
     00000531  A$cpm$902                          cpm
     00000531  C$cpm.c$160$4_1$35                 cpm
     00000532  A$cpm$903                          cpm
     00000534  A$cpm$904                          cpm
     00000537  A$cpm$905                          cpm
     00000539  A$cpm$906                          cpm
     0000053B  A$cpm$907                          cpm
     0000053D  A$cpm$908                          cpm
     00000540  A$cpm$909                          cpm
     00000542  A$cpm$910                          cpm
     00000544  A$cpm$911                          cpm
     00000546  A$cpm$912                          cpm
     00000549  A$cpm$913                          cpm
     0000054C  A$cpm$921                          cpm
     0000054C  C$cpm.c$161$5_1$42                 cpm
     0000054C  C$cpm.c$162$5_1$42                 cpm
     0000054F  A$cpm$922                          cpm
     00000550  A$cpm$923                          cpm
     00000551  A$cpm$924                          cpm
     00000554  A$cpm$925                          cpm
     00000557  A$cpm$926                          cpm
     0000055A  A$cpm$927                          cpm
     0000055D  A$cpm$928                          cpm
     0000055E  A$cpm$929                          cpm
     0000055F  A$cpm$930                          cpm
     00000560  A$cpm$931                          cpm
     00000561  A$cpm$932                          cpm
     00000562  A$cpm$933                          cpm
     00000563  A$cpm$934                          cpm
     00000564  A$cpm$935                          cpm
     00000565  A$cpm$939                          cpm
     00000565  C$cpm.c$163$5_1$42                 cpm
     00000566  A$cpm$940                          cpm
     00000567  A$cpm$941                          cpm
     00000568  A$cpm$942                          cpm
     00000569  A$cpm$943                          cpm
     0000056C  A$cpm$944                          cpm
     0000056D  A$cpm$945                          cpm
     00000570  A$cpm$948                          cpm
     00000573  A$cpm$951                          cpm
     00000574  A$cpm$952                          cpm
     00000577  A$cpm$955                          cpm
     0000057A  A$cpm$958                          cpm
     0000057B  A$cpm$959                          cpm
     0000057E  A$cpm$960                          cpm
     0000057F  A$cpm$961                          cpm
ASxxxx Linker V03.00 + NoICE + sdld,  page 15.
Hexadecimal  [32-Bits]

Area                                    Addr        Size        Decimal Bytes (Attributes)
--------------------------------        ----        ----        ------- ----- ------------
_CODE                               00000100    00000736 =        1846. bytes (REL,CON)

      Value  Global                              Global Defined In Module
      -----  --------------------------------   ------------------------
     00000581  A$cpm$962                          cpm
     00000582  A$cpm$963                          cpm
     00000583  A$cpm$964                          cpm
     00000586  A$cpm$965                          cpm
     00000589  A$cpm$966                          cpm
     0000058A  A$cpm$967                          cpm
     0000058B  A$cpm$971                          cpm
     0000058B  C$cpm.c$164$5_1$42                 cpm
     0000058E  A$cpm$979                          cpm
     0000058E  C$cpm.c$166$5_1$42                 cpm
     0000058E  C$cpm.c$167$5_1$42                 cpm
     00000591  A$cpm$980                          cpm
     00000592  A$cpm$981                          cpm
     00000593  A$cpm$982                          cpm
     00000596  A$cpm$983                          cpm
     00000599  A$cpm$984                          cpm
     0000059C  A$cpm$985                          cpm
     0000059F  A$cpm$986                          cpm
     000005A0  A$cpm$987                          cpm
     000005A1  A$cpm$988                          cpm
     000005A2  A$cpm$989                          cpm
     000005A3  A$cpm$990                          cpm
     000005A4  A$cpm$991                          cpm
     000005A5  A$cpm$992                          cpm
     000005A6  A$cpm$993                          cpm
     000005A7  A$cpm$997                          cpm
     000005A7  C$cpm.c$168$5_1$42                 cpm
     000005A8  A$cpm$998                          cpm
     000005A9  A$cpm$999                          cpm
     000005AA  A$cpm$1000                         cpm
     000005AB  A$cpm$1001                         cpm
     000005AE  A$cpm$1002                         cpm
     000005AF  A$cpm$1003                         cpm
     000005B2  A$cpm$1006                         cpm
     000005B5  A$cpm$1009                         cpm
     000005B6  A$cpm$1010                         cpm
     000005B9  A$cpm$1013                         cpm
     000005BC  A$cpm$1016                         cpm
     000005BD  A$cpm$1017                         cpm
     000005C0  A$cpm$1018                         cpm
     000005C1  A$cpm$1019                         cpm
     000005C3  A$cpm$1020                         cpm
     000005C4  A$cpm$1021                         cpm
     000005C5  A$cpm$1022                         cpm
     000005C8  A$cpm$1023                         cpm
     000005CB  A$cpm$1024                         cpm
     000005CC  A$cpm$1025                         cpm
     000005CD  A$cpm$1029                         cpm
     000005CD  C$cpm.c$169$5_1$42                 cpm
     000005D0  A$cpm$1037                         cpm
     000005D0  C$cpm.c$171$5_1$42                 cpm
ASxxxx Linker V03.00 + NoICE + sdld,  page 16.
Hexadecimal  [32-Bits]

Area                                    Addr        Size        Decimal Bytes (Attributes)
--------------------------------        ----        ----        ------- ----- ------------
_CODE                               00000100    00000736 =        1846. bytes (REL,CON)

      Value  Global                              Global Defined In Module
      -----  --------------------------------   ------------------------
     000005D0  C$cpm.c$172$5_1$42                 cpm
     000005D3  A$cpm$1038                         cpm
     000005D4  A$cpm$1039                         cpm
     000005D5  A$cpm$1040                         cpm
     000005D8  A$cpm$1041                         cpm
     000005DB  A$cpm$1042                         cpm
     000005DE  A$cpm$1043                         cpm
     000005E1  A$cpm$1044                         cpm
     000005E2  A$cpm$1045                         cpm
     000005E3  A$cpm$1046                         cpm
     000005E4  A$cpm$1047                         cpm
     000005E5  A$cpm$1048                         cpm
     000005E6  A$cpm$1049                         cpm
     000005E7  A$cpm$1050                         cpm
     000005E8  A$cpm$1051                         cpm
     000005E9  A$cpm$1055                         cpm
     000005E9  C$cpm.c$173$5_1$42                 cpm
     000005EA  A$cpm$1056                         cpm
     000005EB  A$cpm$1057                         cpm
     000005EC  A$cpm$1058                         cpm
     000005ED  A$cpm$1059                         cpm
     000005F0  A$cpm$1060                         cpm
     000005F1  A$cpm$1061                         cpm
     000005F4  A$cpm$1064                         cpm
     000005F7  A$cpm$1067                         cpm
     000005F8  A$cpm$1068                         cpm
     000005FB  A$cpm$1071                         cpm
     000005FE  A$cpm$1074                         cpm
     000005FF  A$cpm$1075                         cpm
     00000602  A$cpm$1076                         cpm
     00000603  A$cpm$1077                         cpm
     00000605  A$cpm$1078                         cpm
     00000606  A$cpm$1079                         cpm
     00000607  A$cpm$1080                         cpm
     0000060A  A$cpm$1081                         cpm
     0000060D  A$cpm$1082                         cpm
     0000060E  A$cpm$1083                         cpm
     0000060F  A$cpm$1087                         cpm
     0000060F  C$cpm.c$174$5_1$42                 cpm
     00000612  A$cpm$1095                         cpm
     00000612  C$cpm.c$176$5_1$42                 cpm
     00000612  C$cpm.c$177$5_1$42                 cpm
     00000615  A$cpm$1096                         cpm
     00000616  A$cpm$1097                         cpm
     00000617  A$cpm$1098                         cpm
     0000061A  A$cpm$1099                         cpm
     0000061D  A$cpm$1100                         cpm
     00000620  A$cpm$1101                         cpm
     00000623  A$cpm$1102                         cpm
     00000624  A$cpm$1103                         cpm
     00000625  A$cpm$1104                         cpm
ASxxxx Linker V03.00 + NoICE + sdld,  page 17.
Hexadecimal  [32-Bits]

Area                                    Addr        Size        Decimal Bytes (Attributes)
--------------------------------        ----        ----        ------- ----- ------------
_CODE                               00000100    00000736 =        1846. bytes (REL,CON)

      Value  Global                              Global Defined In Module
      -----  --------------------------------   ------------------------
     00000626  A$cpm$1105                         cpm
     00000627  A$cpm$1106                         cpm
     00000628  A$cpm$1107                         cpm
     00000629  A$cpm$1108                         cpm
     0000062A  A$cpm$1109                         cpm
     0000062B  A$cpm$1113                         cpm
     0000062B  C$cpm.c$178$5_1$42                 cpm
     0000062C  A$cpm$1114                         cpm
     0000062D  A$cpm$1115                         cpm
     0000062E  A$cpm$1116                         cpm
     0000062F  A$cpm$1117                         cpm
     00000632  A$cpm$1118                         cpm
     00000633  A$cpm$1119                         cpm
     00000636  A$cpm$1122                         cpm
     00000639  A$cpm$1125                         cpm
     0000063A  A$cpm$1126                         cpm
     0000063D  A$cpm$1129                         cpm
     00000640  A$cpm$1132                         cpm
     00000641  A$cpm$1133                         cpm
     00000644  A$cpm$1134                         cpm
     00000645  A$cpm$1135                         cpm
     00000647  A$cpm$1136                         cpm
     00000648  A$cpm$1137                         cpm
     00000649  A$cpm$1138                         cpm
     0000064C  A$cpm$1139                         cpm
     0000064F  A$cpm$1140                         cpm
     00000650  A$cpm$1141                         cpm
     00000651  A$cpm$1145                         cpm
     00000651  C$cpm.c$179$5_1$42                 cpm
     00000654  A$cpm$1153                         cpm
     00000654  C$cpm.c$181$5_1$42                 cpm
     00000654  C$cpm.c$182$5_1$42                 cpm
     00000657  A$cpm$1154                         cpm
     00000658  A$cpm$1155                         cpm
     00000659  A$cpm$1156                         cpm
     0000065C  A$cpm$1157                         cpm
     0000065F  A$cpm$1158                         cpm
     00000662  A$cpm$1159                         cpm
     00000665  A$cpm$1160                         cpm
     00000666  A$cpm$1161                         cpm
     00000667  A$cpm$1165                         cpm
     00000667  C$cpm.c$183$5_1$42                 cpm
     0000066A  A$cpm$1166                         cpm
     0000066B  A$cpm$1167                         cpm
     0000066C  A$cpm$1168                         cpm
     0000066D  A$cpm$1169                         cpm
     0000066E  A$cpm$1170                         cpm
     0000066F  A$cpm$1174                         cpm
     0000066F  C$cpm.c$184$5_1$42                 cpm
     00000670  A$cpm$1175                         cpm
     00000671  A$cpm$1176                         cpm
ASxxxx Linker V03.00 + NoICE + sdld,  page 18.
Hexadecimal  [32-Bits]

Area                                    Addr        Size        Decimal Bytes (Attributes)
--------------------------------        ----        ----        ------- ----- ------------
_CODE                               00000100    00000736 =        1846. bytes (REL,CON)

      Value  Global                              Global Defined In Module
      -----  --------------------------------   ------------------------
     00000672  A$cpm$1177                         cpm
     00000673  A$cpm$1178                         cpm
     00000674  A$cpm$1182                         cpm
     00000674  C$cpm.c$185$5_1$42                 cpm
     00000677  A$cpm$1185                         cpm
     0000067A  A$cpm$1188                         cpm
     0000067B  A$cpm$1189                         cpm
     0000067E  A$cpm$1192                         cpm
     00000681  A$cpm$1195                         cpm
     00000682  A$cpm$1196                         cpm
     00000683  A$cpm$1197                         cpm
     00000686  A$cpm$1198                         cpm
     00000687  A$cpm$1199                         cpm
     00000688  A$cpm$1200                         cpm
     00000689  A$cpm$1204                         cpm
     00000689  C$cpm.c$186$5_1$42                 cpm
     0000068B  A$cpm$1212                         cpm
     0000068B  C$cpm.c$188$5_1$42                 cpm
     0000068B  C$cpm.c$189$5_1$42                 cpm
     0000068E  A$cpm$1213                         cpm
     0000068F  A$cpm$1214                         cpm
     00000690  A$cpm$1215                         cpm
     00000693  A$cpm$1216                         cpm
     00000696  A$cpm$1217                         cpm
     00000699  A$cpm$1218                         cpm
     0000069C  A$cpm$1219                         cpm
     0000069D  A$cpm$1220                         cpm
     000006A0  A$cpm$1221                         cpm
     000006A1  A$cpm$1222                         cpm
     000006A2  A$cpm$1223                         cpm
     000006A5  A$cpm$1224                         cpm
     000006A6  A$cpm$1225                         cpm
     000006A7  A$cpm$1226                         cpm
     000006AA  A$cpm$1227                         cpm
     000006AB  A$cpm$1228                         cpm
     000006AC  A$cpm$1229                         cpm
     000006AF  A$cpm$1230                         cpm
     000006B0  A$cpm$1234                         cpm
     000006B0  C$cpm.c$191$5_1$42                 cpm
     000006B1  A$cpm$1235                         cpm
     000006B4  A$cpm$1236                         cpm
     000006B5  A$cpm$1237                         cpm
     000006B6  A$cpm$1238                         cpm
     000006B9  A$cpm$1239                         cpm
     000006BC  A$cpm$1240                         cpm
     000006BF  A$cpm$1241                         cpm
     000006C1  A$cpm$1242                         cpm
     000006C5  A$cpm$1243                         cpm
     000006C9  A$cpm$1245                         cpm
     000006CC  A$cpm$1248                         cpm
     000006CF  A$cpm$1251                         cpm
ASxxxx Linker V03.00 + NoICE + sdld,  page 19.
Hexadecimal  [32-Bits]

Area                                    Addr        Size        Decimal Bytes (Attributes)
--------------------------------        ----        ----        ------- ----- ------------
_CODE                               00000100    00000736 =        1846. bytes (REL,CON)

      Value  Global                              Global Defined In Module
      -----  --------------------------------   ------------------------
     000006D0  A$cpm$1252                         cpm
     000006D3  A$cpm$1255                         cpm
     000006D6  A$cpm$1258                         cpm
     000006D7  A$cpm$1259                         cpm
     000006DA  A$cpm$1262                         cpm
     000006DD  A$cpm$1265                         cpm
     000006DE  A$cpm$1266                         cpm
     000006E1  A$cpm$1267                         cpm
     000006E2  A$cpm$1268                         cpm
     000006E3  A$cpm$1269                         cpm
     000006E4  A$cpm$1273                         cpm
     000006E4  C$cpm.c$192$5_1$42                 cpm
     000006E6  A$cpm$1281                         cpm
     000006E6  C$cpm.c$198$4_1$43                 cpm
     000006E6  C$cpm.c$199$4_1$43                 cpm
     000006E8  A$cpm$1282                         cpm
     000006E9  A$cpm$1283                         cpm
     000006EA  A$cpm$1284                         cpm
     000006ED  A$cpm$1285                         cpm
     000006EE  A$cpm$1290                         cpm
     000006EE  C$cpm.c$133$2_1$33                 cpm
     000006F1  A$cpm$1291                         cpm
     000006F4  A$cpm$1292                         cpm
     000006F7  A$cpm$1293                         cpm
     000006FA  A$cpm$1298                         cpm
     000006FC  A$cpm$1299                         cpm
     000006FE  A$cpm$1304                         cpm
     000006FE  C$cpm.c$202$2_1$30                 cpm
     000006FE  XG$printf$0$0                      cpm
     000006FF  Fcpm$__str_0$0_0$0                 cpm
     00000706  _bdos                              bdos
     0000070F  _bdosret                           bdos
     0000073A  __divuint                          sdcc
     00000742  __divuchar                         sdcc
     0000077B  __moduchar                         sdcc
     00000787  __moduint                          sdcc
     000007A1  __gdp_set_dxdy                     gdp
     000007AB  __gdp_set_xy                       gdp
     000007C8  _gdp_init                          gdp
     000007D4  _gdp_cls                           gdp
     000007DA  pargs                              args

ASxxxx Linker V03.00 + NoICE + sdld,  page 20.
Hexadecimal  [32-Bits]

Area                                    Addr        Size        Decimal Bytes (Attributes)
--------------------------------        ----        ----        ------- ----- ------------
_GSINIT                             00000836    0000000F =          15. bytes (REL,CON)

      Value  Global                              Global Defined In Module
      -----  --------------------------------   ------------------------
     00000836  gsinit                             crt0

ASxxxx Linker V03.00 + NoICE + sdld,  page 21.
Hexadecimal  [32-Bits]

Area                                    Addr        Size        Decimal Bytes (Attributes)
--------------------------------        ----        ----        ------- ----- ------------
_GSFINAL                            00000845    00000001 =           1. bytes (REL,CON)

      Value  Global                              Global Defined In Module
      -----  --------------------------------   ------------------------
ASxxxx Linker V03.00 + NoICE + sdld,  page 22.
Hexadecimal  [32-Bits]

Area                                    Addr        Size        Decimal Bytes (Attributes)
--------------------------------        ----        ----        ------- ----- ------------
_DATA                               00000846    00000012 =          18. bytes (REL,CON)

      Value  Global                              Global Defined In Module
      -----  --------------------------------   ------------------------
     00000846  argc                               args
     00000848  argv                               args

ASxxxx Linker V03.00 + NoICE + sdld,  page 23.
Hexadecimal  [32-Bits]

Area                                    Addr        Size        Decimal Bytes (Attributes)
--------------------------------        ----        ----        ------- ----- ------------
_STACK                              00000858    00000400 =        1024. bytes (REL,CON)

      Value  Global                              Global Defined In Module
      -----  --------------------------------   ------------------------
ASxxxx Linker V03.00 + NoICE + sdld,  page 24.
Hexadecimal  [32-Bits]

Area                                    Addr        Size        Decimal Bytes (Attributes)
--------------------------------        ----        ----        ------- ----- ------------
_HEAP                               00000C58    00000000 =           0. bytes (REL,CON)

      Value  Global                              Global Defined In Module
      -----  --------------------------------   ------------------------
     00000C58  _heap                              crt0

ASxxxx Linker V03.00 + NoICE + sdld,  page 25.

Files Linked                              [ module(s) ]

/home/tomaz/Work/mavrica/build/crt0.rel   [ crt0 ]
/home/tomaz/Work/mavrica/build/main.rel   [ main ]
/home/tomaz/Work/mavrica/build/cpm.rel    [ cpm ]
/home/tomaz/Work/mavrica/build/bdos.rel   [ bdos ]
/home/tomaz/Work/mavrica/build/sdcc.rel   [ sdcc ]
/home/tomaz/Work/mavrica/build/gdp.rel    [ gdp ]
/home/tomaz/Work/mavrica/build/args.rel   [ args ]

ASxxxx Linker V03.00 + NoICE + sdld,  page 26.

User Base Address Definitions

_CODE = 0x0100

